target datalayout = "e-m:e-p270:32:32-p271:32:32-p272:64:64-i64:64-i128:128-f80:128-n8:16:32:64-S128"
target triple = "x86_64-pc-linux-gnu"

%"class.std::__cxx11::basic_string" = type { %"struct.std::__cxx11::basic_string<char>::_Alloc_hider", i64, %union.anon }
%"struct.std::__cxx11::basic_string<char>::_Alloc_hider" = type { ptr }
%union.anon = type { i64, [8 x i8] }
%"class.open_spiel::battleship::ShipPlacement" = type { %"class.open_spiel::battleship::CellAndDirection", %"struct.open_spiel::battleship::Ship" }
%"class.open_spiel::battleship::CellAndDirection" = type { i32, %"struct.open_spiel::battleship::Cell" }
%"struct.open_spiel::battleship::Cell" = type { i32, i32 }
%"struct.open_spiel::battleship::Ship" = type { i32, i32, double }

@.str = private unnamed_addr constant [146 x i8] c"generated/home/dtcxzyw/WorkSpace/Projects/compilers/llvm-opt-benchmark/bench/openspiel/open_spiel/open_spiel/games/battleship/battleship_types.cc\00", align 1
@.str.1 = private unnamed_addr constant [2 x i8] c":\00", align 1
@.str.2 = private unnamed_addr constant [2 x i8] c" \00", align 1
@.str.5 = private unnamed_addr constant [4 x i8] c" = \00", align 1
@.str.18 = private unnamed_addr constant [33 x i8] c"direction == Direction::Vertical\00", align 1
@.str.19 = private unnamed_addr constant [11 x i8] c"\0Adirection\00", align 1
@.str.20 = private unnamed_addr constant [25 x i8] c", Direction::Vertical = \00", align 1

; Function Attrs: mustprogress uwtable
define noundef zeroext i1 @_ZNK10open_spiel10battleship13ShipPlacement10CoversCellERKNS0_4CellE(ptr noundef nonnull align 8 dereferenceable(32) %0, ptr noundef nonnull align 4 dereferenceable(8) %1) #4 align 2 personality ptr @__gxx_personality_v0 {
  %3 = alloca i1, align 1
  %4 = alloca ptr, align 8
  %5 = alloca ptr, align 8
  %6 = alloca i32, align 4
  %7 = alloca i32, align 4
  %8 = alloca %"class.std::__cxx11::basic_string", align 8
  %9 = alloca i32, align 4
  %10 = alloca ptr, align 8
  %11 = alloca i32, align 4
  store ptr %0, ptr %4, align 8
  store ptr %1, ptr %5, align 8
  %12 = load ptr, ptr %4, align 8
  %13 = getelementptr inbounds nuw %"class.open_spiel::battleship::CellAndDirection", ptr %12, i32 0, i32 0
  %14 = load i32, ptr %13, align 8
  %15 = icmp eq i32 %14, 0
  br i1 %15, label %16, label %46

16:                                               ; preds = %2
  %17 = load ptr, ptr %5, align 8
  %18 = getelementptr inbounds nuw %"struct.open_spiel::battleship::Cell", ptr %17, i32 0, i32 0
  %19 = load i32, ptr %18, align 4
  %20 = getelementptr inbounds nuw %"class.open_spiel::battleship::CellAndDirection", ptr %12, i32 0, i32 1
  %21 = getelementptr inbounds nuw %"struct.open_spiel::battleship::Cell", ptr %20, i32 0, i32 0
  %22 = load i32, ptr %21, align 4
  %23 = icmp eq i32 %19, %22
  br i1 %23, label %24, label %44

24:                                               ; preds = %16
  %25 = load ptr, ptr %5, align 8
  %26 = getelementptr inbounds nuw %"struct.open_spiel::battleship::Cell", ptr %25, i32 0, i32 1
  %27 = load i32, ptr %26, align 4
  %28 = getelementptr inbounds nuw %"class.open_spiel::battleship::CellAndDirection", ptr %12, i32 0, i32 1
  %29 = getelementptr inbounds nuw %"struct.open_spiel::battleship::Cell", ptr %28, i32 0, i32 1
  %30 = load i32, ptr %29, align 4
  %31 = icmp sge i32 %27, %30
  br i1 %31, label %32, label %44

32:                                               ; preds = %24
  %33 = load ptr, ptr %5, align 8
  %34 = getelementptr inbounds nuw %"struct.open_spiel::battleship::Cell", ptr %33, i32 0, i32 1
  %35 = load i32, ptr %34, align 4
  %36 = getelementptr inbounds nuw %"class.open_spiel::battleship::CellAndDirection", ptr %12, i32 0, i32 1
  %37 = getelementptr inbounds nuw %"struct.open_spiel::battleship::Cell", ptr %36, i32 0, i32 1
  %38 = load i32, ptr %37, align 4
  %39 = getelementptr inbounds nuw %"class.open_spiel::battleship::ShipPlacement", ptr %12, i32 0, i32 1
  %40 = getelementptr inbounds nuw %"struct.open_spiel::battleship::Ship", ptr %39, i32 0, i32 1
  %41 = load i32, ptr %40, align 4
  %42 = add nsw i32 %38, %41
  %43 = icmp slt i32 %35, %42
  br label %44

44:                                               ; preds = %32, %24, %16
  %45 = phi i1 [ false, %24 ], [ false, %16 ], [ %43, %32 ]
  store i1 %45, ptr %3, align 1
  br label %90

46:                                               ; preds = %2
  br label %47

47:                                               ; preds = %46
  %48 = getelementptr inbounds nuw %"class.open_spiel::battleship::CellAndDirection", ptr %12, i32 0, i32 0
  %49 = load i32, ptr %48, align 8
  store i32 %49, ptr %6, align 4
  store i32 1, ptr %7, align 4
  %50 = load i32, ptr %6, align 4
  %51 = load i32, ptr %7, align 4
  %52 = icmp eq i32 %50, %51
  br i1 %52, label %59, label %53

53:                                               ; preds = %47
  store i32 126, ptr %9, align 4
  call void @_ZN10open_spiel8internal11SpielStrCatIJRA146_KcRA2_S2_iS6_RA33_S2_RA11_S2_RA4_S2_RNS_10battleship16CellAndDirection9DirectionERA25_S2_SG_EEENSt7__cxx1112basic_stringIcSt11char_traitsIcESaIcEEEDpOT_(ptr dead_on_unwind writable sret(%"class.std::__cxx11::basic_string") align 8 %8, ptr noundef nonnull align 1 dereferenceable(146) @.str, ptr noundef nonnull align 1 dereferenceable(2) @.str.1, ptr noundef nonnull align 4 dereferenceable(4) %9, ptr noundef nonnull align 1 dereferenceable(2) @.str.2, ptr noundef nonnull align 1 dereferenceable(33) @.str.18, ptr noundef nonnull align 1 dereferenceable(11) @.str.19, ptr noundef nonnull align 1 dereferenceable(4) @.str.5, ptr noundef nonnull align 4 dereferenceable(4) %6, ptr noundef nonnull align 1 dereferenceable(25) @.str.20, ptr noundef nonnull align 4 dereferenceable(4) %7)
  invoke void @_ZN10open_spiel15SpielFatalErrorERKNSt7__cxx1112basic_stringIcSt11char_traitsIcESaIcEEE(ptr noundef nonnull align 8 dereferenceable(32) %8) #12
          to label %54 unwind label %55

54:                                               ; preds = %53
  unreachable

55:                                               ; preds = %53
  %56 = landingpad { ptr, i32 }
          cleanup
  %57 = extractvalue { ptr, i32 } %56, 0
  store ptr %57, ptr %10, align 8
  %58 = extractvalue { ptr, i32 } %56, 1
  store i32 %58, ptr %11, align 4
  call void @_ZNSt7__cxx1112basic_stringIcSt11char_traitsIcESaIcEED1Ev(ptr noundef nonnull align 8 dereferenceable(32) %8) #3
  br label %92

59:                                               ; preds = %47
  br label %60

60:                                               ; preds = %59
  %61 = load ptr, ptr %5, align 8
  %62 = getelementptr inbounds nuw %"struct.open_spiel::battleship::Cell", ptr %61, i32 0, i32 1
  %63 = load i32, ptr %62, align 4
  %64 = getelementptr inbounds nuw %"class.open_spiel::battleship::CellAndDirection", ptr %12, i32 0, i32 1
  %65 = getelementptr inbounds nuw %"struct.open_spiel::battleship::Cell", ptr %64, i32 0, i32 1
  %66 = load i32, ptr %65, align 4
  %67 = icmp eq i32 %63, %66
  br i1 %67, label %68, label %88

68:                                               ; preds = %60
  %69 = load ptr, ptr %5, align 8
  %70 = getelementptr inbounds nuw %"struct.open_spiel::battleship::Cell", ptr %69, i32 0, i32 0
  %71 = load i32, ptr %70, align 4
  %72 = getelementptr inbounds nuw %"class.open_spiel::battleship::CellAndDirection", ptr %12, i32 0, i32 1
  %73 = getelementptr inbounds nuw %"struct.open_spiel::battleship::Cell", ptr %72, i32 0, i32 0
  %74 = load i32, ptr %73, align 4
  %75 = icmp sge i32 %71, %74
  br i1 %75, label %76, label %88

76:                                               ; preds = %68
  %77 = load ptr, ptr %5, align 8
  %78 = getelementptr inbounds nuw %"struct.open_spiel::battleship::Cell", ptr %77, i32 0, i32 0
  %79 = load i32, ptr %78, align 4
  %80 = getelementptr inbounds nuw %"class.open_spiel::battleship::CellAndDirection", ptr %12, i32 0, i32 1
  %81 = getelementptr inbounds nuw %"struct.open_spiel::battleship::Cell", ptr %80, i32 0, i32 0
  %82 = load i32, ptr %81, align 4
  %83 = getelementptr inbounds nuw %"class.open_spiel::battleship::ShipPlacement", ptr %12, i32 0, i32 1
  %84 = getelementptr inbounds nuw %"struct.open_spiel::battleship::Ship", ptr %83, i32 0, i32 1
  %85 = load i32, ptr %84, align 4
  %86 = add nsw i32 %82, %85
  %87 = icmp slt i32 %79, %86
  br label %88

88:                                               ; preds = %76, %68, %60
  %89 = phi i1 [ false, %68 ], [ false, %60 ], [ %87, %76 ]
  store i1 %89, ptr %3, align 1
  br label %90

90:                                               ; preds = %88, %44
  %91 = load i1, ptr %3, align 1
  ret i1 %91

92:                                               ; preds = %55
  %93 = load ptr, ptr %10, align 8
  %94 = load i32, ptr %11, align 4
  %95 = insertvalue { ptr, i32 } poison, ptr %93, 0
  %96 = insertvalue { ptr, i32 } %95, i32 %94, 1
  resume { ptr, i32 } %96
}