; Function Attrs: mustprogress uwtable
define noundef zeroext i1 @_ZNK10open_spiel10battleship13ShipPlacement10CoversCellERKNS0_4CellE(ptr nocapture noundef nonnull readonly align 8 dereferenceable(32) %0, ptr nocapture noundef nonnull readonly align 4 dereferenceable(8) %1) local_unnamed_addr #3 align 2 personality ptr @__gxx_personality_v0 {
  %3 = alloca i32, align 4
  %4 = alloca i32, align 4
  %5 = alloca %"class.std::__cxx11::basic_string", align 8
  %6 = alloca i32, align 4
  %7 = load i32, ptr %0, align 8
  %8 = icmp eq i32 %7, 0
  br i1 %8, label %9, label %24

9:                                                ; preds = %2
  %10 = load i32, ptr %1, align 4
  %11 = getelementptr inbounds nuw i8, ptr %0, i64 4
  %12 = load i32, ptr %11, align 4
  %13 = icmp eq i32 %10, %12
  br i1 %13, label %14, label %45

14:                                               ; preds = %9
  %15 = getelementptr inbounds nuw i8, ptr %1, i64 4
  %16 = load i32, ptr %15, align 4
  %17 = getelementptr inbounds i8, ptr %0, i64 8
  %18 = load i32, ptr %17, align 8
  %.not14 = icmp slt i32 %16, %18
  br i1 %.not14, label %45, label %19

19:                                               ; preds = %14
  %20 = getelementptr inbounds i8, ptr %0, i64 20
  %21 = load i32, ptr %20, align 4
  %22 = add nsw i32 %21, %18
  %23 = icmp slt i32 %16, %22
  br label %45

24:                                               ; preds = %2
  store i32 %7, ptr %3, align 4
  store i32 1, ptr %4, align 4
  %25 = icmp eq i32 %7, 1
  br i1 %25, label %30, label %26

26:                                               ; preds = %24
  store i32 126, ptr %6, align 4
  call void @_ZN10open_spiel8internal11SpielStrCatIJRA146_KcRA2_S2_iS6_RA33_S2_RA11_S2_RA4_S2_RNS_10battleship16CellAndDirection9DirectionERA25_S2_SG_EEENSt7__cxx1112basic_stringIcSt11char_traitsIcESaIcEEEDpOT_(ptr dead_on_unwind nonnull writable sret(%"class.std::__cxx11::basic_string") align 8 %5, ptr noundef nonnull align 1 dereferenceable(146) @.str, ptr noundef nonnull align 1 dereferenceable(2) @.str.1, ptr noundef nonnull align 4 dereferenceable(4) %6, ptr noundef nonnull align 1 dereferenceable(2) @.str.2, ptr noundef nonnull align 1 dereferenceable(33) @.str.18, ptr noundef nonnull align 1 dereferenceable(11) @.str.19, ptr noundef nonnull align 1 dereferenceable(4) @.str.5, ptr noundef nonnull align 4 dereferenceable(4) %3, ptr noundef nonnull align 1 dereferenceable(25) @.str.20, ptr noundef nonnull align 4 dereferenceable(4) %4)
  invoke void @_ZN10open_spiel15SpielFatalErrorERKNSt7__cxx1112basic_stringIcSt11char_traitsIcESaIcEEE(ptr noundef nonnull align 8 dereferenceable(32) %5) #11
          to label %27 unwind label %28

27:                                               ; preds = %26
  unreachable

28:                                               ; preds = %26
  %29 = landingpad { ptr, i32 }
          cleanup
  call void @_ZNSt7__cxx1112basic_stringIcSt11char_traitsIcESaIcEED1Ev(ptr noundef nonnull align 8 dereferenceable(32) %5) #14
  resume { ptr, i32 } %29

30:                                               ; preds = %24
  %31 = getelementptr inbounds nuw i8, ptr %1, i64 4
  %32 = load i32, ptr %31, align 4
  %33 = getelementptr inbounds i8, ptr %0, i64 8
  %34 = load i32, ptr %33, align 8
  %35 = icmp eq i32 %32, %34
  br i1 %35, label %36, label %45

36:                                               ; preds = %30
  %37 = getelementptr inbounds nuw i8, ptr %0, i64 4
  %38 = load i32, ptr %1, align 4
  %39 = load i32, ptr %37, align 4
  %.not = icmp slt i32 %38, %39
  br i1 %.not, label %45, label %40

40:                                               ; preds = %36
  %41 = getelementptr inbounds i8, ptr %0, i64 20
  %42 = load i32, ptr %41, align 4
  %43 = add nsw i32 %42, %39
  %44 = icmp slt i32 %38, %43
  br label %45

45:                                               ; preds = %30, %36, %40, %9, %14, %19
  %.0 = phi i1 [ false, %14 ], [ false, %9 ], [ %23, %19 ], [ false, %36 ], [ false, %30 ], [ %44, %40 ]
  ret i1 %.0
}